; ModuleID = 'bench/linux/original/firmware.ll'
source_filename = "bench/linux/original/firmware.ll"
target datalayout = "e-m:e-p270:32:32-p271:32:32-p272:64:64-i64:64-i128:128-f80:128-n8:16:32:64-S128"
target triple = "x86_64-unknown-linux-gnu"

module asm ".section \22.export_symbol\22,\22a\22 ; __export_symbol_firmware_kobj: ; .asciz \22GPL\22 ; .asciz \22\22 ; .balign 8 ; .quad firmware_kobj ; .previous"

@firmware_kobj = dso_local global ptr null, align 8
@__UNIQUE_ID___addressable_firmware_kobj311 = internal global ptr @firmware_kobj, section ".discard.addressable", align 8
@.str = private unnamed_addr constant [9 x i8] c"firmware\00", align 1
@llvm.compiler.used = appending global [1 x ptr] [ptr @__UNIQUE_ID___addressable_firmware_kobj311], section "llvm.metadata"

; Function Attrs: cold fn_ret_thunk_extern nounwind null_pointer_is_valid optsize
define dso_local i32 @firmware_init() local_unnamed_addr #0 section ".init.text" align 16 {
  %1 = tail call ptr @kobject_create_and_add(ptr noundef nonnull @.str, ptr noundef null) #2
  store ptr %1, ptr @firmware_kobj, align 8
  %2 = icmp eq ptr %1, null
  %3 = select i1 %2, i32 -12, i32 0
  ret i32 %3
}

; Function Attrs: null_pointer_is_valid
declare dso_local ptr @kobject_create_and_add(ptr noundef, ptr noundef) local_unnamed_addr #1


!llvm.module.flags = !{!0, !1, !2, !3, !4}

!0 = !{i32 1, !"wchar_size", i32 2}
!1 = !{i32 8, !"cf-protection-branch", i32 1}
!2 = !{i32 4, !"function_return_thunk_extern", i32 1}
!3 = !{i32 4, !"indirect_branch_cs_prefix", i32 1}
!4 = !{i32 4, !"SkipRaxSetup", i32 1}
